; Function Attrs: mustprogress nounwind uwtable
define void @_ZN4LIEF5MachO14SegmentCommandC2Ev(ptr noundef nonnull align 8 dereferenceable(216) %0) unnamed_addr #0 align 2 {
  tail call void @_ZN4LIEF6ObjectC2Ev(ptr noundef nonnull align 8 dereferenceable(56) %0) #24
  %2 = getelementptr inbounds nuw i8, ptr %0, i64 8
  %3 = getelementptr inbounds nuw i8, ptr %0, i64 48
  store i64 0, ptr %3, align 8, !tbaa !3
  tail call void @llvm.memset.p0.i64(ptr noundef nonnull align 8 dereferenceable(36) %2, i8 0, i64 36, i1 false)
  store ptr getelementptr inbounds nuw inrange(-16, 72) (i8, ptr @_ZTVN4LIEF5MachO14SegmentCommandE, i64 16), ptr %0, align 8, !tbaa !17
  %4 = getelementptr inbounds nuw i8, ptr %0, i64 56
  %5 = getelementptr inbounds nuw i8, ptr %0, i64 72
  store ptr %5, ptr %4, align 8, !tbaa !19
  %6 = getelementptr inbounds nuw i8, ptr %0, i64 64
  store i64 0, ptr %6, align 8, !tbaa !21
  store i8 0, ptr %5, align 8, !tbaa !23
  %7 = getelementptr inbounds nuw i8, ptr %0, i64 88
  %8 = getelementptr inbounds nuw i8, ptr %0, i64 136
  tail call void @llvm.memset.p0.i64(ptr noundef nonnull align 8 dereferenceable(48) %7, i8 0, i64 48, i1 false)
  store i8 -1, ptr %8, align 8, !tbaa !24
  %9 = getelementptr inbounds nuw i8, ptr %0, i64 144
  tail call void @llvm.memset.p0.i64(ptr noundef nonnull align 8 dereferenceable(72) %9, i8 0, i64 72, i1 false)
  ret void
}